target datalayout = "e-m:e-p270:32:32-p271:32:32-p272:64:64-i64:64-i128:128-f80:128-n8:16:32:64-S128"
target triple = "x86_64-pc-linux-gnu"

%struct.UConverterAlias = type { ptr, ptr, ptr, ptr, ptr, ptr, ptr, ptr, ptr, i32, i32, i32, i32, i32, i32, i32, i32, i32 }
%struct.UEnumeration = type { ptr, ptr, ptr, ptr, ptr, ptr, ptr }

@_ZL10gMainTable = internal global %struct.UConverterAlias zeroinitializer, align 8

; Function Attrs: mustprogress nounwind uwtable
define internal noundef ptr @_ZL25ucnv_io_nextAllConvertersP12UEnumerationPiP10UErrorCode(ptr noundef %0, ptr noundef %1, ptr noundef %2) #0 {
  %4 = alloca ptr, align 8
  %5 = alloca ptr, align 8
  %6 = alloca ptr, align 8
  %7 = alloca ptr, align 8
  %8 = alloca ptr, align 8
  %9 = alloca ptr, align 8
  %10 = alloca i32, align 4
  store ptr %0, ptr %5, align 8, !tbaa !37
  store ptr %1, ptr %6, align 8, !tbaa !61
  store ptr %2, ptr %7, align 8, !tbaa !17
  call void @llvm.lifetime.start.p0(i64 8, ptr %8) #12
  %11 = load ptr, ptr %5, align 8, !tbaa !37
  %12 = getelementptr inbounds nuw %struct.UEnumeration, ptr %11, i32 0, i32 1
  %13 = load ptr, ptr %12, align 8, !tbaa !45
  store ptr %13, ptr %8, align 8, !tbaa !53
  %14 = load ptr, ptr %8, align 8, !tbaa !53
  %15 = load i16, ptr %14, align 2, !tbaa !23
  %16 = zext i16 %15 to i32
  %17 = load i32, ptr getelementptr inbounds nuw (%struct.UConverterAlias, ptr @_ZL10gMainTable, i32 0, i32 9), align 8, !tbaa !18
  %18 = icmp ult i32 %16, %17
  br i1 %18, label %19, label %40

19:                                               ; preds = %3
  call void @llvm.lifetime.start.p0(i64 8, ptr %9) #12
  %20 = load ptr, ptr getelementptr inbounds nuw (%struct.UConverterAlias, ptr @_ZL10gMainTable, i32 0, i32 7), align 8, !tbaa !21
  %21 = load ptr, ptr @_ZL10gMainTable, align 8, !tbaa !22
  %22 = load ptr, ptr %8, align 8, !tbaa !53
  %23 = load i16, ptr %22, align 2, !tbaa !23
  %24 = add i16 %23, 1
  store i16 %24, ptr %22, align 2, !tbaa !23
  %25 = zext i16 %23 to i64
  %26 = getelementptr inbounds nuw i16, ptr %21, i64 %25
  %27 = load i16, ptr %26, align 2, !tbaa !23
  %28 = zext i16 %27 to i32
  %29 = sext i32 %28 to i64
  %30 = getelementptr inbounds i16, ptr %20, i64 %29
  store ptr %30, ptr %9, align 8, !tbaa !3
  %31 = load ptr, ptr %6, align 8, !tbaa !61
  %32 = icmp ne ptr %31, null
  br i1 %32, label %33, label %38

33:                                               ; preds = %19
  %34 = load ptr, ptr %9, align 8, !tbaa !3
  %35 = call i64 @strlen(ptr noundef %34) #13
  %36 = trunc i64 %35 to i32
  %37 = load ptr, ptr %6, align 8, !tbaa !61
  store i32 %36, ptr %37, align 4, !tbaa !14
  br label %38

38:                                               ; preds = %33, %19
  %39 = load ptr, ptr %9, align 8, !tbaa !3
  store ptr %39, ptr %4, align 8
  store i32 1, ptr %10, align 4
  call void @llvm.lifetime.end.p0(i64 8, ptr %9) #12
  br label %46

40:                                               ; preds = %3
  %41 = load ptr, ptr %6, align 8, !tbaa !61
  %42 = icmp ne ptr %41, null
  br i1 %42, label %43, label %45

43:                                               ; preds = %40
  %44 = load ptr, ptr %6, align 8, !tbaa !61
  store i32 0, ptr %44, align 4, !tbaa !14
  br label %45

45:                                               ; preds = %43, %40
  store ptr null, ptr %4, align 8
  store i32 1, ptr %10, align 4
  br label %46

46:                                               ; preds = %45, %38
  call void @llvm.lifetime.end.p0(i64 8, ptr %8) #12
  %47 = load ptr, ptr %4, align 8
  ret ptr %47
}