; Function Attrs: mustprogress nofree nounwind willreturn memory(readwrite, inaccessiblemem: none) uwtable
define internal noundef ptr @_ZL25ucnv_io_nextAllConvertersP12UEnumerationPiP10UErrorCode(ptr noundef readonly captures(none) %0, ptr noundef writeonly %1, ptr readnone captures(none) %2) #11 {
  %4 = getelementptr inbounds nuw i8, ptr %0, i64 8
  %5 = load ptr, ptr %4, align 8, !tbaa !53
  %6 = load i16, ptr %5, align 2, !tbaa !22
  %7 = zext i16 %6 to i32
  %8 = load i32, ptr getelementptr inbounds nuw (i8, ptr @_ZL10gMainTable, i64 72), align 8, !tbaa !15
  %9 = icmp ugt i32 %8, %7
  br i1 %9, label %10, label %22

10:                                               ; preds = %3
  %11 = load ptr, ptr getelementptr inbounds nuw (i8, ptr @_ZL10gMainTable, i64 56), align 8, !tbaa !20
  %12 = load ptr, ptr @_ZL10gMainTable, align 8, !tbaa !21
  %13 = add i16 %6, 1
  store i16 %13, ptr %5, align 2, !tbaa !22
  %14 = zext i16 %6 to i64
  %15 = getelementptr inbounds nuw i16, ptr %12, i64 %14
  %16 = load i16, ptr %15, align 2, !tbaa !22
  %17 = zext i16 %16 to i64
  %18 = getelementptr inbounds nuw i16, ptr %11, i64 %17
  %.not11 = icmp eq ptr %1, null
  br i1 %.not11, label %23, label %19

19:                                               ; preds = %10
  %20 = tail call i64 @strlen(ptr noundef nonnull dereferenceable(1) %18) #15
  %21 = trunc i64 %20 to i32
  br label %.sink.split

22:                                               ; preds = %3
  %.not = icmp eq ptr %1, null
  br i1 %.not, label %23, label %.sink.split

.sink.split:                                      ; preds = %22, %19
  %.sink = phi i32 [ %21, %19 ], [ 0, %22 ]
  %.0.ph = phi ptr [ %18, %19 ], [ null, %22 ]
  store i32 %.sink, ptr %1, align 4, !tbaa !24
  br label %23

23:                                               ; preds = %.sink.split, %22, %10
  %.0 = phi ptr [ %18, %10 ], [ null, %22 ], [ %.0.ph, %.sink.split ]
  ret ptr %.0
}